; Function Attrs: mustprogress uwtable
define noundef ptr @proj_crs_get_sub_crs(ptr noundef %0, ptr noundef readonly %1, i32 noundef %2) local_unnamed_addr #2 personality ptr @__gxx_personality_v0 {
  %4 = alloca %"struct.osgeo::proj::util::BaseObjectNNPtr", align 8
  %5 = icmp eq ptr %0, null
  br i1 %5, label %6, label %8

6:                                                ; preds = %3
  %7 = tail call noundef ptr @_Z18pj_get_default_ctxv()
  br label %8

8:                                                ; preds = %3, %6
  %.015 = phi ptr [ %7, %6 ], [ %0, %3 ]
  %.not = icmp eq ptr %1, null
  br i1 %.not, label %9, label %10

9:                                                ; preds = %8
  tail call void @_Z22proj_context_errno_setP6pj_ctxi(ptr noundef %.015, i32 noundef 4097)
  tail call fastcc void @_ZL14proj_log_errorP6pj_ctxPKcS2_(ptr noundef %.015, ptr noundef nonnull @__FUNCTION__.proj_crs_get_sub_crs, ptr noundef nonnull @.str.2)
  br label %44

10:                                               ; preds = %8
  %11 = getelementptr inbounds i8, ptr %1, i64 640
  %12 = load ptr, ptr %11, align 8
  %13 = icmp eq ptr %12, null
  br i1 %13, label %.thread, label %14

14:                                               ; preds = %10
  %15 = tail call ptr @__dynamic_cast(ptr nonnull %12, ptr nonnull @_ZTIN5osgeo4proj4util10BaseObjectE, ptr nonnull @_ZTIN5osgeo4proj3crs11CompoundCRSE, i64 0) #27
  %.not21 = icmp eq ptr %15, null
  br i1 %.not21, label %.thread, label %16

.thread:                                          ; preds = %10, %14
  tail call fastcc void @_ZL14proj_log_errorP6pj_ctxPKcS2_(ptr noundef %.015, ptr noundef nonnull @__FUNCTION__.proj_crs_get_sub_crs, ptr noundef nonnull @.str.26)
  br label %44

16:                                               ; preds = %14
  %17 = tail call noundef nonnull align 8 dereferenceable(24) ptr @_ZNK5osgeo4proj3crs11CompoundCRS25componentReferenceSystemsEv(ptr noundef nonnull align 8 dereferenceable(80) %15) #32
  %18 = sext i32 %2 to i64
  %19 = getelementptr inbounds i8, ptr %17, i64 8
  %20 = load ptr, ptr %19, align 8
  %21 = load ptr, ptr %17, align 8
  %22 = ptrtoint ptr %20 to i64
  %23 = ptrtoint ptr %21 to i64
  %24 = sub i64 %22, %23
  %25 = ashr exact i64 %24, 4
  %.not22 = icmp ugt i64 %25, %18
  br i1 %.not22, label %26, label %44

26:                                               ; preds = %16
  %27 = getelementptr inbounds %"class.dropbox::oxygen::nn.199", ptr %21, i64 %18
  %28 = load ptr, ptr %27, align 8
  store ptr %28, ptr %4, align 8
  %29 = getelementptr inbounds i8, ptr %4, i64 8
  %30 = getelementptr inbounds i8, ptr %27, i64 8
  %31 = load ptr, ptr %30, align 8
  store ptr %31, ptr %29, align 8
  %.not.i.i.i.i.i = icmp eq ptr %31, null
  br i1 %.not.i.i.i.i.i, label %_ZN5osgeo4proj4util15BaseObjectNNPtrC2INS0_3crs3CRSEEERKN7dropbox6oxygen2nnISt10shared_ptrIT_EEE.exit, label %32

32:                                               ; preds = %26
  %33 = getelementptr inbounds i8, ptr %31, i64 8
  %34 = load i8, ptr @__libc_single_threaded, align 1
  %.not.i.i.i.i.i.i = icmp eq i8 %34, 0
  br i1 %.not.i.i.i.i.i.i, label %38, label %35

35:                                               ; preds = %32
  %36 = load i32, ptr %33, align 4
  %37 = add nsw i32 %36, 1
  store i32 %37, ptr %33, align 4
  br label %_ZN5osgeo4proj4util15BaseObjectNNPtrC2INS0_3crs3CRSEEERKN7dropbox6oxygen2nnISt10shared_ptrIT_EEE.exit

38:                                               ; preds = %32
  %39 = atomicrmw volatile add ptr %33, i32 1 acq_rel, align 4
  br label %_ZN5osgeo4proj4util15BaseObjectNNPtrC2INS0_3crs3CRSEEERKN7dropbox6oxygen2nnISt10shared_ptrIT_EEE.exit

_ZN5osgeo4proj4util15BaseObjectNNPtrC2INS0_3crs3CRSEEERKN7dropbox6oxygen2nnISt10shared_ptrIT_EEE.exit: ; preds = %26, %35, %38
  %40 = invoke noundef ptr @_Z13pj_obj_createP6pj_ctxRKN5osgeo4proj4util15BaseObjectNNPtrE(ptr noundef %.015, ptr noundef nonnull align 8 dereferenceable(16) %4)
          to label %41 unwind label %42

41:                                               ; preds = %_ZN5osgeo4proj4util15BaseObjectNNPtrC2INS0_3crs3CRSEEERKN7dropbox6oxygen2nnISt10shared_ptrIT_EEE.exit
  call void @_ZN5osgeo4proj4util15BaseObjectNNPtrD1Ev(ptr noundef nonnull align 8 dereferenceable(16) %4) #27
  br label %44

42:                                               ; preds = %_ZN5osgeo4proj4util15BaseObjectNNPtrC2INS0_3crs3CRSEEERKN7dropbox6oxygen2nnISt10shared_ptrIT_EEE.exit
  %43 = landingpad { ptr, i32 }
          cleanup
  call void @_ZN5osgeo4proj4util15BaseObjectNNPtrD1Ev(ptr noundef nonnull align 8 dereferenceable(16) %4) #27
  resume { ptr, i32 } %43

44:                                               ; preds = %16, %41, %.thread, %9
  %.0 = phi ptr [ %40, %41 ], [ null, %.thread ], [ null, %9 ], [ null, %16 ]
  ret ptr %.0
}